; Function Attrs: mustprogress nofree norecurse nosync nounwind willreturn memory(read, argmem: readwrite, inaccessiblemem: none) uwtable
define internal fastcc range(i32 -32768, 32768) i32 @decode_cbp8(ptr noundef nonnull captures(none) %0, i32 noundef range(i32 0, 4) %1, i32 noundef range(i32 0, -2147483648) %2) unnamed_addr #8 {
  %4 = zext nneg i32 %2 to i64
  %5 = getelementptr inbounds nuw [64 x i8], ptr @rv60_qp_to_idx, i64 0, i64 %4
  %6 = load i8, ptr %5, align 1, !tbaa !42
  %7 = zext i8 %6 to i64
  %8 = zext nneg i32 %1 to i64
  %9 = getelementptr inbounds nuw [7 x [4 x ptr]], ptr @cbp8_vlc, i64 0, i64 %7, i64 %8
  %10 = load ptr, ptr %9, align 8, !tbaa !84
  %11 = getelementptr inbounds nuw i8, ptr %0, i64 16
  %12 = load i32, ptr %11, align 8, !tbaa !51
  %13 = getelementptr inbounds nuw i8, ptr %0, i64 24
  %14 = load i32, ptr %13, align 8, !tbaa !46
  %15 = load ptr, ptr %0, align 8, !tbaa !43
  %16 = lshr i32 %12, 3
  %17 = zext nneg i32 %16 to i64
  %18 = getelementptr inbounds nuw i8, ptr %15, i64 %17
  %19 = load i32, ptr %18, align 1, !tbaa !42
  %20 = tail call i32 @llvm.bswap.i32(i32 %19)
  %21 = and i32 %12, 7
  %22 = shl i32 %20, %21
  %23 = lshr i32 %22, 23
  %24 = zext nneg i32 %23 to i64
  %25 = getelementptr inbounds nuw %struct.VLCElem, ptr %10, i64 %24
  %26 = load i16, ptr %25, align 2, !tbaa !42
  %27 = sext i16 %26 to i32
  %28 = getelementptr inbounds nuw i8, ptr %25, i64 2
  %29 = load i16, ptr %28, align 2, !tbaa !42
  %30 = sext i16 %29 to i32
  %31 = icmp slt i16 %29, 0
  br i1 %31, label %32, label %get_vlc2.exit

32:                                               ; preds = %3
  %33 = add i32 %12, 9
  %34 = tail call i32 @llvm.umin.i32(i32 %14, i32 %33)
  %35 = lshr i32 %34, 3
  %36 = zext nneg i32 %35 to i64
  %37 = getelementptr inbounds nuw i8, ptr %15, i64 %36
  %38 = load i32, ptr %37, align 1, !tbaa !42
  %39 = tail call i32 @llvm.bswap.i32(i32 %38)
  %40 = and i32 %34, 7
  %41 = shl i32 %39, %40
  %42 = add nsw i32 %30, 32
  %43 = lshr i32 %41, %42
  %44 = add i32 %43, %27
  %45 = zext i32 %44 to i64
  %46 = getelementptr inbounds nuw %struct.VLCElem, ptr %10, i64 %45
  %47 = load i16, ptr %46, align 2, !tbaa !42
  %48 = sext i16 %47 to i32
  %49 = getelementptr inbounds nuw i8, ptr %46, i64 2
  %50 = load i16, ptr %49, align 2, !tbaa !42
  %51 = sext i16 %50 to i32
  br label %get_vlc2.exit

get_vlc2.exit:                                    ; preds = %3, %32
  %.064.i = phi i32 [ %34, %32 ], [ %12, %3 ]
  %.062.i = phi i32 [ %48, %32 ], [ %27, %3 ]
  %.0.i = phi i32 [ %51, %32 ], [ %30, %3 ]
  %52 = add i32 %.0.i, %.064.i
  %53 = tail call i32 @llvm.umin.i32(i32 %14, i32 %52)
  store i32 %53, ptr %11, align 8, !tbaa !51
  ret i32 %.062.i
}